target datalayout = "e-m:e-p270:32:32-p271:32:32-p272:64:64-i64:64-i128:128-f80:128-n8:16:32:64-S128"
target triple = "x86_64-pc-linux-gnu"

%struct.boxf = type { %struct.pointf_s, %struct.pointf_s }
%struct.pointf_s = type { double, double }
%struct.cell = type { i32, i32, [6 x ptr], i32, ptr, %struct.boxf }

@pre = global ptr @.str, align 8
@post = global ptr @.str.1, align 8
@stderr = external global ptr, align 8
@__const.psdump.absbb = private unnamed_addr constant %struct.boxf { %struct.pointf_s { double 1.000000e+01, double 1.000000e+01 }, %struct.pointf_s zeroinitializer }, align 8
@.str.4 = private unnamed_addr constant [56 x i8] c"%%%%Page: 1 1\0A%%%%PageBoundingBox: %.0f %.0f %.0f %.0f\0A\00", align 1
@.str.5 = private unnamed_addr constant [17 x i8] c"%f %f translate\0A\00", align 1
@.str.6 = private unnamed_addr constant [19 x i8] c"0 0 1 setrgbcolor\0A\00", align 1
@.str.7 = private unnamed_addr constant [18 x i8] c"%f %f %f %f node\0A\00", align 1
@.str.8 = private unnamed_addr constant [19 x i8] c"0 0 0 setrgbcolor\0A\00", align 1
@.str.9 = private unnamed_addr constant [18 x i8] c"%f %f %f %f cell\0A\00", align 1
@.str.10 = private unnamed_addr constant [19 x i8] c"1 0 0 setrgbcolor\0A\00", align 1

; Function Attrs: nounwind uwtable
define internal void @psdump(ptr noundef %0, i32 noundef %1, ptr noundef byval(%struct.boxf) align 8 %2, ptr noundef %3, i64 noundef %4) #0 {
  %6 = alloca ptr, align 8
  %7 = alloca i32, align 4
  %8 = alloca ptr, align 8
  %9 = alloca i64, align 8
  %10 = alloca %struct.boxf, align 8
  %11 = alloca %struct.boxf, align 8
  %12 = alloca i32, align 4
  %13 = alloca i64, align 8
  store ptr %0, ptr %6, align 8, !tbaa !7
  store i32 %1, ptr %7, align 4, !tbaa !26
  store ptr %3, ptr %8, align 8, !tbaa !3
  store i64 %4, ptr %9, align 8, !tbaa !77
  call void @llvm.lifetime.start.p0(i64 32, ptr %10) #10
  call void @llvm.lifetime.start.p0(i64 32, ptr %11) #10
  call void @llvm.memcpy.p0.p0.i64(ptr align 8 %11, ptr align 8 @__const.psdump.absbb, i64 32, i1 false)
  %14 = getelementptr inbounds nuw %struct.boxf, ptr %11, i32 0, i32 0
  %15 = getelementptr inbounds nuw %struct.pointf_s, ptr %14, i32 0, i32 0
  %16 = load double, ptr %15, align 8, !tbaa !68
  %17 = getelementptr inbounds nuw %struct.boxf, ptr %2, i32 0, i32 1
  %18 = getelementptr inbounds nuw %struct.pointf_s, ptr %17, i32 0, i32 0
  %19 = load double, ptr %18, align 8, !tbaa !69
  %20 = fadd double %16, %19
  %21 = getelementptr inbounds nuw %struct.boxf, ptr %2, i32 0, i32 0
  %22 = getelementptr inbounds nuw %struct.pointf_s, ptr %21, i32 0, i32 0
  %23 = load double, ptr %22, align 8, !tbaa !68
  %24 = fsub double %20, %23
  %25 = getelementptr inbounds nuw %struct.boxf, ptr %11, i32 0, i32 1
  %26 = getelementptr inbounds nuw %struct.pointf_s, ptr %25, i32 0, i32 0
  store double %24, ptr %26, align 8, !tbaa !69
  %27 = getelementptr inbounds nuw %struct.boxf, ptr %11, i32 0, i32 0
  %28 = getelementptr inbounds nuw %struct.pointf_s, ptr %27, i32 0, i32 1
  %29 = load double, ptr %28, align 8, !tbaa !71
  %30 = getelementptr inbounds nuw %struct.boxf, ptr %2, i32 0, i32 1
  %31 = getelementptr inbounds nuw %struct.pointf_s, ptr %30, i32 0, i32 1
  %32 = load double, ptr %31, align 8, !tbaa !72
  %33 = fadd double %29, %32
  %34 = getelementptr inbounds nuw %struct.boxf, ptr %2, i32 0, i32 0
  %35 = getelementptr inbounds nuw %struct.pointf_s, ptr %34, i32 0, i32 1
  %36 = load double, ptr %35, align 8, !tbaa !71
  %37 = fsub double %33, %36
  %38 = getelementptr inbounds nuw %struct.boxf, ptr %11, i32 0, i32 1
  %39 = getelementptr inbounds nuw %struct.pointf_s, ptr %38, i32 0, i32 1
  store double %37, ptr %39, align 8, !tbaa !72
  %40 = load ptr, ptr @pre, align 8, !tbaa !84
  %41 = load ptr, ptr @stderr, align 8, !tbaa !82
  %42 = call i32 @fputs(ptr noundef %40, ptr noundef %41)
  %43 = load ptr, ptr @stderr, align 8, !tbaa !82
  %44 = getelementptr inbounds nuw %struct.boxf, ptr %11, i32 0, i32 0
  %45 = getelementptr inbounds nuw %struct.pointf_s, ptr %44, i32 0, i32 0
  %46 = load double, ptr %45, align 8, !tbaa !68
  %47 = getelementptr inbounds nuw %struct.boxf, ptr %11, i32 0, i32 0
  %48 = getelementptr inbounds nuw %struct.pointf_s, ptr %47, i32 0, i32 1
  %49 = load double, ptr %48, align 8, !tbaa !71
  %50 = getelementptr inbounds nuw %struct.boxf, ptr %11, i32 0, i32 1
  %51 = getelementptr inbounds nuw %struct.pointf_s, ptr %50, i32 0, i32 0
  %52 = load double, ptr %51, align 8, !tbaa !69
  %53 = getelementptr inbounds nuw %struct.boxf, ptr %11, i32 0, i32 1
  %54 = getelementptr inbounds nuw %struct.pointf_s, ptr %53, i32 0, i32 1
  %55 = load double, ptr %54, align 8, !tbaa !72
  %56 = call i32 (ptr, ptr, ...) @fprintf(ptr noundef %43, ptr noundef @.str.4, double noundef %46, double noundef %49, double noundef %52, double noundef %55) #10
  %57 = load ptr, ptr @stderr, align 8, !tbaa !82
  %58 = getelementptr inbounds nuw %struct.boxf, ptr %2, i32 0, i32 0
  %59 = getelementptr inbounds nuw %struct.pointf_s, ptr %58, i32 0, i32 0
  %60 = load double, ptr %59, align 8, !tbaa !68
  %61 = fsub double 1.000000e+01, %60
  %62 = getelementptr inbounds nuw %struct.boxf, ptr %2, i32 0, i32 0
  %63 = getelementptr inbounds nuw %struct.pointf_s, ptr %62, i32 0, i32 1
  %64 = load double, ptr %63, align 8, !tbaa !71
  %65 = fsub double 1.000000e+01, %64
  %66 = call i32 (ptr, ptr, ...) @fprintf(ptr noundef %57, ptr noundef @.str.5, double noundef %61, double noundef %65) #10
  %67 = load ptr, ptr @stderr, align 8, !tbaa !82
  %68 = call i32 @fputs(ptr noundef @.str.6, ptr noundef %67)
  call void @llvm.lifetime.start.p0(i64 4, ptr %12) #10
  store i32 0, ptr %12, align 4, !tbaa !26
  br label %69

69:                                               ; preds = %94, %5
  %70 = load i32, ptr %12, align 4, !tbaa !26
  %71 = load i32, ptr %7, align 4, !tbaa !26
  %72 = icmp slt i32 %70, %71
  br i1 %72, label %74, label %73

73:                                               ; preds = %69
  call void @llvm.lifetime.end.p0(i64 4, ptr %12) #10
  br label %97

74:                                               ; preds = %69
  %75 = load ptr, ptr %6, align 8, !tbaa !7
  %76 = load i32, ptr %12, align 4, !tbaa !26
  %77 = sext i32 %76 to i64
  %78 = getelementptr inbounds %struct.cell, ptr %75, i64 %77
  %79 = getelementptr inbounds nuw %struct.cell, ptr %78, i32 0, i32 5
  call void @llvm.memcpy.p0.p0.i64(ptr align 8 %10, ptr align 8 %79, i64 32, i1 false), !tbaa.struct !73
  %80 = load ptr, ptr @stderr, align 8, !tbaa !82
  %81 = getelementptr inbounds nuw %struct.boxf, ptr %10, i32 0, i32 0
  %82 = getelementptr inbounds nuw %struct.pointf_s, ptr %81, i32 0, i32 0
  %83 = load double, ptr %82, align 8, !tbaa !68
  %84 = getelementptr inbounds nuw %struct.boxf, ptr %10, i32 0, i32 0
  %85 = getelementptr inbounds nuw %struct.pointf_s, ptr %84, i32 0, i32 1
  %86 = load double, ptr %85, align 8, !tbaa !71
  %87 = getelementptr inbounds nuw %struct.boxf, ptr %10, i32 0, i32 1
  %88 = getelementptr inbounds nuw %struct.pointf_s, ptr %87, i32 0, i32 0
  %89 = load double, ptr %88, align 8, !tbaa !69
  %90 = getelementptr inbounds nuw %struct.boxf, ptr %10, i32 0, i32 1
  %91 = getelementptr inbounds nuw %struct.pointf_s, ptr %90, i32 0, i32 1
  %92 = load double, ptr %91, align 8, !tbaa !72
  %93 = call i32 (ptr, ptr, ...) @fprintf(ptr noundef %80, ptr noundef @.str.7, double noundef %83, double noundef %86, double noundef %89, double noundef %92) #10
  br label %94

94:                                               ; preds = %74
  %95 = load i32, ptr %12, align 4, !tbaa !26
  %96 = add nsw i32 %95, 1
  store i32 %96, ptr %12, align 4, !tbaa !26
  br label %69, !llvm.loop !85

97:                                               ; preds = %73
  %98 = load ptr, ptr @stderr, align 8, !tbaa !82
  %99 = call i32 @fputs(ptr noundef @.str.8, ptr noundef %98)
  call void @llvm.lifetime.start.p0(i64 8, ptr %13) #10
  store i64 0, ptr %13, align 8, !tbaa !77
  br label %100

100:                                              ; preds = %123, %97
  %101 = load i64, ptr %13, align 8, !tbaa !77
  %102 = load i64, ptr %9, align 8, !tbaa !77
  %103 = icmp ult i64 %101, %102
  br i1 %103, label %105, label %104

104:                                              ; preds = %100
  call void @llvm.lifetime.end.p0(i64 8, ptr %13) #10
  br label %126

105:                                              ; preds = %100
  %106 = load ptr, ptr %8, align 8, !tbaa !3
  %107 = load i64, ptr %13, align 8, !tbaa !77
  %108 = getelementptr inbounds nuw %struct.boxf, ptr %106, i64 %107
  call void @llvm.memcpy.p0.p0.i64(ptr align 8 %10, ptr align 8 %108, i64 32, i1 false), !tbaa.struct !73
  %109 = load ptr, ptr @stderr, align 8, !tbaa !82
  %110 = getelementptr inbounds nuw %struct.boxf, ptr %10, i32 0, i32 0
  %111 = getelementptr inbounds nuw %struct.pointf_s, ptr %110, i32 0, i32 0
  %112 = load double, ptr %111, align 8, !tbaa !68
  %113 = getelementptr inbounds nuw %struct.boxf, ptr %10, i32 0, i32 0
  %114 = getelementptr inbounds nuw %struct.pointf_s, ptr %113, i32 0, i32 1
  %115 = load double, ptr %114, align 8, !tbaa !71
  %116 = getelementptr inbounds nuw %struct.boxf, ptr %10, i32 0, i32 1
  %117 = getelementptr inbounds nuw %struct.pointf_s, ptr %116, i32 0, i32 0
  %118 = load double, ptr %117, align 8, !tbaa !69
  %119 = getelementptr inbounds nuw %struct.boxf, ptr %10, i32 0, i32 1
  %120 = getelementptr inbounds nuw %struct.pointf_s, ptr %119, i32 0, i32 1
  %121 = load double, ptr %120, align 8, !tbaa !72
  %122 = call i32 (ptr, ptr, ...) @fprintf(ptr noundef %109, ptr noundef @.str.9, double noundef %112, double noundef %115, double noundef %118, double noundef %121) #10
  br label %123

123:                                              ; preds = %105
  %124 = load i64, ptr %13, align 8, !tbaa !77
  %125 = add i64 %124, 1
  store i64 %125, ptr %13, align 8, !tbaa !77
  br label %100, !llvm.loop !86

126:                                              ; preds = %104
  %127 = load ptr, ptr @stderr, align 8, !tbaa !82
  %128 = call i32 @fputs(ptr noundef @.str.10, ptr noundef %127)
  %129 = load ptr, ptr @stderr, align 8, !tbaa !82
  %130 = getelementptr inbounds nuw %struct.boxf, ptr %2, i32 0, i32 0
  %131 = getelementptr inbounds nuw %struct.pointf_s, ptr %130, i32 0, i32 0
  %132 = load double, ptr %131, align 8, !tbaa !68
  %133 = getelementptr inbounds nuw %struct.boxf, ptr %2, i32 0, i32 0
  %134 = getelementptr inbounds nuw %struct.pointf_s, ptr %133, i32 0, i32 1
  %135 = load double, ptr %134, align 8, !tbaa !71
  %136 = getelementptr inbounds nuw %struct.boxf, ptr %2, i32 0, i32 1
  %137 = getelementptr inbounds nuw %struct.pointf_s, ptr %136, i32 0, i32 0
  %138 = load double, ptr %137, align 8, !tbaa !69
  %139 = getelementptr inbounds nuw %struct.boxf, ptr %2, i32 0, i32 1
  %140 = getelementptr inbounds nuw %struct.pointf_s, ptr %139, i32 0, i32 1
  %141 = load double, ptr %140, align 8, !tbaa !72
  %142 = call i32 (ptr, ptr, ...) @fprintf(ptr noundef %129, ptr noundef @.str.9, double noundef %132, double noundef %135, double noundef %138, double noundef %141) #10
  %143 = load ptr, ptr @post, align 8, !tbaa !84
  %144 = load ptr, ptr @stderr, align 8, !tbaa !82
  %145 = call i32 @fputs(ptr noundef %143, ptr noundef %144)
  call void @llvm.lifetime.end.p0(i64 32, ptr %11) #10
  call void @llvm.lifetime.end.p0(i64 32, ptr %10) #10
  ret void
}