; Function Attrs: cold nofree nounwind uwtable
define internal fastcc void @psdump(ptr noundef readonly captures(none) %0, i32 noundef %1, ptr noundef readonly byval(%struct.boxf) align 8 captures(none) %2, ptr noundef readonly captures(none) %3, i64 noundef %4) unnamed_addr #6 {
  %6 = getelementptr inbounds nuw i8, ptr %2, i64 16
  %7 = load double, ptr %6, align 8, !tbaa !71
  %8 = fadd double %7, 1.000000e+01
  %9 = load double, ptr %2, align 8, !tbaa !69
  %10 = fsub double %8, %9
  %11 = getelementptr inbounds nuw i8, ptr %2, i64 24
  %12 = load double, ptr %11, align 8, !tbaa !72
  %13 = fadd double %12, 1.000000e+01
  %14 = getelementptr inbounds nuw i8, ptr %2, i64 8
  %15 = load double, ptr %14, align 8, !tbaa !70
  %16 = fsub double %13, %15
  %17 = load ptr, ptr @pre, align 8, !tbaa !115
  %18 = load ptr, ptr @stderr, align 8, !tbaa !37
  %19 = tail call i32 @fputs(ptr noundef %17, ptr noundef %18) #19
  %20 = load ptr, ptr @stderr, align 8, !tbaa !37
  %21 = tail call i32 (ptr, ptr, ...) @fprintf(ptr noundef %20, ptr noundef nonnull @.str.4, double noundef 1.000000e+01, double noundef 1.000000e+01, double noundef %10, double noundef %16) #16
  %22 = load ptr, ptr @stderr, align 8, !tbaa !37
  %23 = fsub double 1.000000e+01, %9
  %24 = fsub double 1.000000e+01, %15
  %25 = tail call i32 (ptr, ptr, ...) @fprintf(ptr noundef %22, ptr noundef nonnull @.str.5, double noundef %23, double noundef %24) #16
  %26 = load ptr, ptr @stderr, align 8, !tbaa !37
  %27 = tail call i64 @fwrite(ptr nonnull @.str.6, i64 18, i64 1, ptr %26) #19
  %28 = icmp sgt i32 %1, 0
  br i1 %28, label %.lr.ph.preheader, label %._crit_edge

.lr.ph.preheader:                                 ; preds = %5
  %wide.trip.count = zext nneg i32 %1 to i64
  br label %.lr.ph

._crit_edge:                                      ; preds = %.lr.ph, %5
  %29 = load ptr, ptr @stderr, align 8, !tbaa !37
  %30 = tail call i64 @fwrite(ptr nonnull @.str.8, i64 18, i64 1, ptr %29) #19
  %.not = icmp eq i64 %4, 0
  br i1 %.not, label %._crit_edge28, label %.lr.ph27

.lr.ph:                                           ; preds = %.lr.ph.preheader, %.lr.ph
  %indvars.iv = phi i64 [ 0, %.lr.ph.preheader ], [ %indvars.iv.next, %.lr.ph ]
  %31 = getelementptr inbounds nuw %struct.cell, ptr %0, i64 %indvars.iv, i32 5
  %.sroa.08.0.copyload = load double, ptr %31, align 8, !tbaa !65
  %.sroa.6.0..sroa_idx = getelementptr inbounds nuw i8, ptr %31, i64 8
  %.sroa.6.0.copyload = load double, ptr %.sroa.6.0..sroa_idx, align 8, !tbaa !65
  %.sroa.8.0..sroa_idx = getelementptr inbounds nuw i8, ptr %31, i64 16
  %.sroa.8.0.copyload = load double, ptr %.sroa.8.0..sroa_idx, align 8, !tbaa !65
  %.sroa.10.0..sroa_idx = getelementptr inbounds nuw i8, ptr %31, i64 24
  %.sroa.10.0.copyload = load double, ptr %.sroa.10.0..sroa_idx, align 8, !tbaa !65
  %32 = load ptr, ptr @stderr, align 8, !tbaa !37
  %33 = tail call i32 (ptr, ptr, ...) @fprintf(ptr noundef %32, ptr noundef nonnull @.str.7, double noundef %.sroa.08.0.copyload, double noundef %.sroa.6.0.copyload, double noundef %.sroa.8.0.copyload, double noundef %.sroa.10.0.copyload) #16
  %indvars.iv.next = add nuw nsw i64 %indvars.iv, 1
  %exitcond.not = icmp eq i64 %indvars.iv.next, %wide.trip.count
  br i1 %exitcond.not, label %._crit_edge, label %.lr.ph, !llvm.loop !116

._crit_edge28:                                    ; preds = %.lr.ph27, %._crit_edge
  %34 = load ptr, ptr @stderr, align 8, !tbaa !37
  %35 = tail call i64 @fwrite(ptr nonnull @.str.10, i64 18, i64 1, ptr %34) #19
  %36 = load ptr, ptr @stderr, align 8, !tbaa !37
  %37 = tail call i32 (ptr, ptr, ...) @fprintf(ptr noundef %36, ptr noundef nonnull @.str.9, double noundef %9, double noundef %15, double noundef %7, double noundef %12) #16
  %38 = load ptr, ptr @post, align 8, !tbaa !115
  %39 = load ptr, ptr @stderr, align 8, !tbaa !37
  %40 = tail call i32 @fputs(ptr noundef %38, ptr noundef %39) #19
  ret void

.lr.ph27:                                         ; preds = %._crit_edge, %.lr.ph27
  %.025 = phi i64 [ %44, %.lr.ph27 ], [ 0, %._crit_edge ]
  %41 = getelementptr inbounds nuw %struct.boxf, ptr %3, i64 %.025
  %.sroa.08.0.copyload10 = load double, ptr %41, align 8, !tbaa !65
  %.sroa.6.0..sroa_idx11 = getelementptr inbounds nuw i8, ptr %41, i64 8
  %.sroa.6.0.copyload12 = load double, ptr %.sroa.6.0..sroa_idx11, align 8, !tbaa !65
  %.sroa.8.0..sroa_idx14 = getelementptr inbounds nuw i8, ptr %41, i64 16
  %.sroa.8.0.copyload15 = load double, ptr %.sroa.8.0..sroa_idx14, align 8, !tbaa !65
  %.sroa.10.0..sroa_idx17 = getelementptr inbounds nuw i8, ptr %41, i64 24
  %.sroa.10.0.copyload18 = load double, ptr %.sroa.10.0..sroa_idx17, align 8, !tbaa !65
  %42 = load ptr, ptr @stderr, align 8, !tbaa !37
  %43 = tail call i32 (ptr, ptr, ...) @fprintf(ptr noundef %42, ptr noundef nonnull @.str.9, double noundef %.sroa.08.0.copyload10, double noundef %.sroa.6.0.copyload12, double noundef %.sroa.8.0.copyload15, double noundef %.sroa.10.0.copyload18) #16
  %44 = add nuw i64 %.025, 1
  %exitcond30.not = icmp eq i64 %44, %4
  br i1 %exitcond30.not, label %._crit_edge28, label %.lr.ph27, !llvm.loop !117
}